target datalayout = "e-m:e-p270:32:32-p271:32:32-p272:64:64-i64:64-i128:128-f80:128-n8:16:32:64-S128"
target triple = "x86_64-pc-linux-gnu"

%struct.ma_vfs_callbacks = type { ptr, ptr, ptr, ptr, ptr, ptr, ptr, ptr }

; Function Attrs: alwaysinline nounwind uwtable
define internal void @ma_zero_memory_default(ptr noundef %0, i64 noundef %1) #7 {
  %3 = alloca ptr, align 8
  %4 = alloca i64, align 8
  store ptr %0, ptr %3, align 8, !tbaa !25
  store i64 %1, ptr %4, align 8, !tbaa !12
  %5 = load ptr, ptr %3, align 8, !tbaa !25
  %6 = icmp eq ptr %5, null
  br i1 %6, label %7, label %8

7:                                                ; preds = %2
  br label %14

8:                                                ; preds = %2
  %9 = load i64, ptr %4, align 8, !tbaa !12
  %10 = icmp ugt i64 %9, 0
  br i1 %10, label %11, label %14

11:                                               ; preds = %8
  %12 = load ptr, ptr %3, align 8, !tbaa !25
  %13 = load i64, ptr %4, align 8, !tbaa !12
  call void @llvm.memset.p0.i64(ptr align 1 %12, i8 0, i64 %13, i1 false)
  br label %14

14:                                               ; preds = %7, %11, %8
  ret void
}

; Function Attrs: nounwind uwtable
define i32 @ma_vfs_info(ptr noundef %0, ptr noundef %1, ptr noundef %2) #0 {
  %4 = alloca i32, align 4
  %5 = alloca ptr, align 8
  %6 = alloca ptr, align 8
  %7 = alloca ptr, align 8
  %8 = alloca ptr, align 8
  %9 = alloca i32, align 4
  store ptr %0, ptr %5, align 8, !tbaa !25
  store ptr %1, ptr %6, align 8, !tbaa !25
  store ptr %2, ptr %7, align 8, !tbaa !25
  call void @llvm.lifetime.start.p0(i64 8, ptr %8) #16
  %10 = load ptr, ptr %5, align 8, !tbaa !25
  store ptr %10, ptr %8, align 8, !tbaa !25
  %11 = load ptr, ptr %7, align 8, !tbaa !25
  %12 = icmp eq ptr %11, null
  br i1 %12, label %13, label %14

13:                                               ; preds = %3
  store i32 -2, ptr %4, align 4
  store i32 1, ptr %9, align 4
  br label %36

14:                                               ; preds = %3
  %15 = load ptr, ptr %7, align 8, !tbaa !25
  call void @ma_zero_memory_default(ptr noundef %15, i64 noundef 8)
  %16 = load ptr, ptr %5, align 8, !tbaa !25
  %17 = icmp eq ptr %16, null
  br i1 %17, label %21, label %18

18:                                               ; preds = %14
  %19 = load ptr, ptr %6, align 8, !tbaa !25
  %20 = icmp eq ptr %19, null
  br i1 %20, label %21, label %22

21:                                               ; preds = %18, %14
  store i32 -2, ptr %4, align 4
  store i32 1, ptr %9, align 4
  br label %36

22:                                               ; preds = %18
  %23 = load ptr, ptr %8, align 8, !tbaa !25
  %24 = getelementptr inbounds nuw %struct.ma_vfs_callbacks, ptr %23, i32 0, i32 7
  %25 = load ptr, ptr %24, align 8, !tbaa !919
  %26 = icmp eq ptr %25, null
  br i1 %26, label %27, label %28

27:                                               ; preds = %22
  store i32 -29, ptr %4, align 4
  store i32 1, ptr %9, align 4
  br label %36

28:                                               ; preds = %22
  %29 = load ptr, ptr %8, align 8, !tbaa !25
  %30 = getelementptr inbounds nuw %struct.ma_vfs_callbacks, ptr %29, i32 0, i32 7
  %31 = load ptr, ptr %30, align 8, !tbaa !919
  %32 = load ptr, ptr %5, align 8, !tbaa !25
  %33 = load ptr, ptr %6, align 8, !tbaa !25
  %34 = load ptr, ptr %7, align 8, !tbaa !25
  %35 = call i32 %31(ptr noundef %32, ptr noundef %33, ptr noundef %34)
  store i32 %35, ptr %4, align 4
  store i32 1, ptr %9, align 4
  br label %36

36:                                               ; preds = %28, %27, %21, %13
  call void @llvm.lifetime.end.p0(i64 8, ptr %8) #16
  %37 = load i32, ptr %4, align 4
  ret i32 %37
}