; Function Attrs: nounwind uwtable
define i32 @ma_vfs_info(ptr noundef %0, ptr noundef %1, ptr noundef %2) local_unnamed_addr #7 {
  %4 = icmp eq ptr %2, null
  br i1 %4, label %13, label %ma_zero_memory_default.exit

ma_zero_memory_default.exit:                      ; preds = %3
  store i64 0, ptr %2, align 1
  %5 = icmp eq ptr %0, null
  %6 = icmp eq ptr %1, null
  %or.cond = or i1 %5, %6
  br i1 %or.cond, label %13, label %7

7:                                                ; preds = %ma_zero_memory_default.exit
  %8 = getelementptr inbounds nuw i8, ptr %0, i64 56
  %9 = load ptr, ptr %8, align 8, !tbaa !1103
  %10 = icmp eq ptr %9, null
  br i1 %10, label %13, label %11

11:                                               ; preds = %7
  %12 = tail call i32 %9(ptr noundef nonnull %0, ptr noundef nonnull %1, ptr noundef nonnull %2) #69
  br label %13

13:                                               ; preds = %7, %ma_zero_memory_default.exit, %3, %11
  %.0 = phi i32 [ %12, %11 ], [ -2, %3 ], [ -2, %ma_zero_memory_default.exit ], [ -29, %7 ]
  ret i32 %.0
}